target datalayout = "e-m:e-p270:32:32-p271:32:32-p272:64:64-i64:64-i128:128-f80:128-n8:16:32:64-S128"
target triple = "x86_64-pc-linux-gnu"

%struct.node_record = type { ptr, ptr, i16, i64, i64, ptr, ptr, ptr, i16, ptr, i16, i16, i32, i32, i64, ptr, i16, i16, ptr, ptr, ptr, ptr, ptr, i64, i64, ptr, ptr, ptr, ptr, i32, ptr, ptr, i64, i64, i32, ptr, i64, ptr, i32, i16, ptr, ptr, i32, ptr, i32, i8, ptr, i32, i16, i16, ptr, i16, i64, i16, i64, ptr, i64, i32, i16, i64, i16, ptr, i16, i64, ptr, i64, i16, i32, i16, ptr, ptr, ptr, i16, i32, i16, i16, i32, ptr, i16, i32 }
%struct.node_weight_struct = type { ptr, i64 }

@.str.2 = private unnamed_addr constant [13 x i8] c"eval_nodes.c\00", align 1
@node_record_count = external global i32, align 4
@__func__._build_node_weight_list = private unnamed_addr constant [24 x i8] c"_build_node_weight_list\00", align 1

; Function Attrs: nounwind uwtable
define internal ptr @_build_node_weight_list(ptr noundef %0) #0 {
  %2 = alloca ptr, align 8
  %3 = alloca ptr, align 8
  %4 = alloca ptr, align 8
  %5 = alloca ptr, align 8
  %6 = alloca i32, align 4
  store ptr %0, ptr %2, align 8
  call void @llvm.lifetime.start.p0(i64 8, ptr %3) #4
  call void @llvm.lifetime.start.p0(i64 8, ptr %4) #4
  call void @llvm.lifetime.start.p0(i64 8, ptr %5) #4
  %7 = call ptr @list_create(ptr noundef @_node_weight_free)
  store ptr %7, ptr %3, align 8
  call void @llvm.lifetime.start.p0(i64 4, ptr %6) #4
  store i32 0, ptr %6, align 4
  br label %8

8:                                                ; preds = %39, %1
  %9 = load ptr, ptr %2, align 8
  %10 = call ptr @next_node_bitmap(ptr noundef %9, ptr noundef %6)
  store ptr %10, ptr %4, align 8
  %11 = icmp ne ptr %10, null
  br i1 %11, label %13, label %12

12:                                               ; preds = %8
  call void @llvm.lifetime.end.p0(i64 4, ptr %6) #4
  br label %42

13:                                               ; preds = %8
  %14 = load ptr, ptr %3, align 8
  %15 = load ptr, ptr %4, align 8
  %16 = call ptr @list_find_first(ptr noundef %14, ptr noundef @_node_weight_find, ptr noundef %15)
  store ptr %16, ptr %5, align 8
  %17 = load ptr, ptr %5, align 8
  %18 = icmp ne ptr %17, null
  br i1 %18, label %33, label %19

19:                                               ; preds = %13
  %20 = call ptr @slurm_xcalloc(i64 noundef 1, i64 noundef 16, i1 noundef zeroext true, i1 noundef zeroext false, ptr noundef @.str.2, i32 noundef 108, ptr noundef @__func__._build_node_weight_list)
  store ptr %20, ptr %5, align 8
  %21 = load i32, ptr @node_record_count, align 4
  %22 = sext i32 %21 to i64
  %23 = call ptr @bit_alloc(i64 noundef %22)
  %24 = load ptr, ptr %5, align 8
  %25 = getelementptr inbounds nuw %struct.node_weight_struct, ptr %24, i32 0, i32 0
  store ptr %23, ptr %25, align 8
  %26 = load ptr, ptr %4, align 8
  %27 = getelementptr inbounds nuw %struct.node_record, ptr %26, i32 0, i32 63
  %28 = load i64, ptr %27, align 8
  %29 = load ptr, ptr %5, align 8
  %30 = getelementptr inbounds nuw %struct.node_weight_struct, ptr %29, i32 0, i32 1
  store i64 %28, ptr %30, align 8
  %31 = load ptr, ptr %3, align 8
  %32 = load ptr, ptr %5, align 8
  call void @list_append(ptr noundef %31, ptr noundef %32)
  br label %33

33:                                               ; preds = %19, %13
  %34 = load ptr, ptr %5, align 8
  %35 = getelementptr inbounds nuw %struct.node_weight_struct, ptr %34, i32 0, i32 0
  %36 = load ptr, ptr %35, align 8
  %37 = load i32, ptr %6, align 4
  %38 = sext i32 %37 to i64
  call void @bit_set(ptr noundef %36, i64 noundef %38)
  br label %39

39:                                               ; preds = %33
  %40 = load i32, ptr %6, align 4
  %41 = add nsw i32 %40, 1
  store i32 %41, ptr %6, align 4
  br label %8, !llvm.loop !48

42:                                               ; preds = %12
  %43 = load ptr, ptr %3, align 8
  call void @list_sort(ptr noundef %43, ptr noundef @_node_weight_sort)
  %44 = load ptr, ptr %3, align 8
  call void @llvm.lifetime.end.p0(i64 8, ptr %5) #4
  call void @llvm.lifetime.end.p0(i64 8, ptr %4) #4
  call void @llvm.lifetime.end.p0(i64 8, ptr %3) #4
  ret ptr %44
}