; Function Attrs: nounwind uwtable
define internal fastcc ptr @_build_node_weight_list(ptr noundef %0) unnamed_addr #0 {
  %2 = alloca i32, align 4
  %3 = tail call ptr @list_create(ptr noundef nonnull @_node_weight_free) #8
  call void @llvm.lifetime.start.p0(i64 4, ptr nonnull %2) #8
  store i32 0, ptr %2, align 4
  %4 = call ptr @next_node_bitmap(ptr noundef %0, ptr noundef nonnull %2) #8
  %.not15 = icmp eq ptr %4, null
  br i1 %.not15, label %._crit_edge, label %.lr.ph

._crit_edge:                                      ; preds = %15, %1
  call void @llvm.lifetime.end.p0(i64 4, ptr nonnull %2) #8
  call void @list_sort(ptr noundef %3, ptr noundef nonnull @_node_weight_sort) #8
  ret ptr %3

.lr.ph:                                           ; preds = %1, %15
  %5 = phi ptr [ %21, %15 ], [ %4, %1 ]
  %6 = call ptr @list_find_first(ptr noundef %3, ptr noundef nonnull @_node_weight_find, ptr noundef nonnull %5) #8
  %.not14 = icmp eq ptr %6, null
  br i1 %.not14, label %7, label %15

7:                                                ; preds = %.lr.ph
  %8 = call ptr @slurm_xcalloc(i64 noundef 1, i64 noundef 16, i1 noundef zeroext true, i1 noundef zeroext false, ptr noundef nonnull @.str.2, i32 noundef 108, ptr noundef nonnull @__func__._build_node_weight_list) #8
  %9 = load i32, ptr @node_record_count, align 4
  %10 = sext i32 %9 to i64
  %11 = call ptr @bit_alloc(i64 noundef %10) #8
  store ptr %11, ptr %8, align 8
  %12 = getelementptr inbounds nuw i8, ptr %5, i64 440
  %13 = load i64, ptr %12, align 8
  %14 = getelementptr inbounds nuw i8, ptr %8, i64 8
  store i64 %13, ptr %14, align 8
  call void @list_append(ptr noundef %3, ptr noundef nonnull %8) #8
  br label %15

15:                                               ; preds = %7, %.lr.ph
  %.0 = phi ptr [ %6, %.lr.ph ], [ %8, %7 ]
  %16 = load ptr, ptr %.0, align 8
  %17 = load i32, ptr %2, align 4
  %18 = sext i32 %17 to i64
  call void @bit_set(ptr noundef %16, i64 noundef %18) #8
  %19 = load i32, ptr %2, align 4
  %20 = add nsw i32 %19, 1
  store i32 %20, ptr %2, align 4
  %21 = call ptr @next_node_bitmap(ptr noundef %0, ptr noundef nonnull %2) #8
  %.not = icmp eq ptr %21, null
  br i1 %.not, label %._crit_edge, label %.lr.ph, !llvm.loop !45
}